target datalayout = "e-m:e-p270:32:32-p271:32:32-p272:64:64-i64:64-i128:128-f80:128-n8:16:32:64-S128"
target triple = "x86_64-pc-linux-gnu"

%struct.darktable_t = type { %struct.dt_codepath_t, i32, i32, ptr, ptr, ptr, ptr, ptr, ptr, ptr, ptr, ptr, ptr, ptr, ptr, ptr, ptr, ptr, ptr, ptr, ptr, ptr, ptr, ptr, ptr, ptr, ptr, ptr, ptr, ptr, [64 x %struct.dt_pthread_mutex_t], %struct.dt_pthread_mutex_t, %struct.dt_pthread_mutex_t, %struct.dt_pthread_mutex_t, %struct.dt_pthread_mutex_t, %struct.dt_pthread_mutex_t, ptr, ptr, ptr, ptr, ptr, ptr, ptr, ptr, ptr, ptr, ptr, ptr, ptr, %struct.dt_lua_state_t, ptr, double, ptr, i32, [47 x i32], i32, i32, ptr, ptr, %struct.dt_sys_resources_t, %struct.dt_backthumb_t, %struct.dt_gimp_t }
%struct.dt_codepath_t = type { i8, [3 x i8] }
%struct.dt_pthread_mutex_t = type { %union.pthread_mutex_t }
%union.pthread_mutex_t = type { %struct.__pthread_mutex_s }
%struct.__pthread_mutex_s = type { i32, i32, i32, i32, i32, i16, i16, %struct.__pthread_internal_list }
%struct.__pthread_internal_list = type { ptr, ptr }
%struct.dt_lua_state_t = type { i32 }
%struct.dt_sys_resources_t = type { i64, i64, ptr, ptr, i32 }
%struct.dt_backthumb_t = type { double, double, i32, i32, i32, i32 }
%struct.dt_gimp_t = type { i32, ptr, ptr, i32, i32 }
%struct.dt_control_image_enumerator_t = type { ptr, i32, ptr, i32 }
%struct._GList = type { ptr, ptr, ptr }
%struct.dt_control_import_t = type { ptr, ptr }

@darktable = external global %struct.darktable_t, align 8
@.str.180 = private unnamed_addr constant [7 x i8] c"import\00", align 1
@.str.181 = private unnamed_addr constant [23 x i8] c"ui_last/import_jobcode\00", align 1

; Function Attrs: nounwind uwtable
define internal ptr @dt_control_image_enumerator_alloc() #0 {
  %1 = alloca ptr, align 8
  %2 = alloca ptr, align 8
  %3 = alloca i32, align 4
  call void @llvm.lifetime.start.p0(i64 8, ptr %2) #14
  %4 = call noalias ptr @calloc(i64 noundef 1, i64 noundef 32) #19
  store ptr %4, ptr %2, align 8, !tbaa !53
  %5 = load ptr, ptr %2, align 8, !tbaa !53
  %6 = icmp ne ptr %5, null
  br i1 %6, label %8, label %7

7:                                                ; preds = %0
  store ptr null, ptr %1, align 8
  store i32 1, ptr %3, align 4
  br label %10

8:                                                ; preds = %0
  %9 = load ptr, ptr %2, align 8, !tbaa !53
  store ptr %9, ptr %1, align 8
  store i32 1, ptr %3, align 4
  br label %10

10:                                               ; preds = %8, %7
  call void @llvm.lifetime.end.p0(i64 8, ptr %2) #14
  %11 = load ptr, ptr %1, align 8
  ret ptr %11
}

; Function Attrs: nounwind uwtable
define internal ptr @_control_import_alloc() #0 {
  %1 = alloca ptr, align 8
  %2 = alloca ptr, align 8
  %3 = alloca i32, align 4
  call void @llvm.lifetime.start.p0(i64 8, ptr %2) #14
  %4 = call ptr @dt_control_image_enumerator_alloc()
  store ptr %4, ptr %2, align 8, !tbaa !53
  %5 = load ptr, ptr %2, align 8, !tbaa !53
  %6 = icmp ne ptr %5, null
  br i1 %6, label %8, label %7

7:                                                ; preds = %0
  store ptr null, ptr %1, align 8
  store i32 1, ptr %3, align 4
  br label %20

8:                                                ; preds = %0
  %9 = call noalias ptr @g_malloc0(i64 noundef 16) #17
  %10 = load ptr, ptr %2, align 8, !tbaa !53
  %11 = getelementptr inbounds nuw %struct.dt_control_image_enumerator_t, ptr %10, i32 0, i32 2
  store ptr %9, ptr %11, align 8, !tbaa !59
  %12 = load ptr, ptr %2, align 8, !tbaa !53
  %13 = getelementptr inbounds nuw %struct.dt_control_image_enumerator_t, ptr %12, i32 0, i32 2
  %14 = load ptr, ptr %13, align 8, !tbaa !59
  %15 = icmp ne ptr %14, null
  br i1 %15, label %18, label %16

16:                                               ; preds = %8
  %17 = load ptr, ptr %2, align 8, !tbaa !53
  call void @_control_import_job_cleanup(ptr noundef %17)
  store ptr null, ptr %1, align 8
  store i32 1, ptr %3, align 4
  br label %20

18:                                               ; preds = %8
  %19 = load ptr, ptr %2, align 8, !tbaa !53
  store ptr %19, ptr %1, align 8
  store i32 1, ptr %3, align 4
  br label %20

20:                                               ; preds = %18, %16, %7
  call void @llvm.lifetime.end.p0(i64 8, ptr %2) #14
  %21 = load ptr, ptr %1, align 8
  ret ptr %21
}

; Function Attrs: nounwind uwtable
define internal ptr @_control_import_job_create(ptr noundef %0, ptr noundef %1, i32 noundef %2, ptr noundef %3) #0 {
  %5 = alloca ptr, align 8
  %6 = alloca ptr, align 8
  %7 = alloca ptr, align 8
  %8 = alloca i32, align 4
  %9 = alloca ptr, align 8
  %10 = alloca ptr, align 8
  %11 = alloca i32, align 4
  %12 = alloca ptr, align 8
  %13 = alloca ptr, align 8
  %14 = alloca ptr, align 8
  store ptr %0, ptr %6, align 8, !tbaa !60
  store ptr %1, ptr %7, align 8, !tbaa !49
  store i32 %2, ptr %8, align 4, !tbaa !50
  store ptr %3, ptr %9, align 8, !tbaa !222
  call void @llvm.lifetime.start.p0(i64 8, ptr %10) #14
  %15 = call ptr (ptr, ptr, ...) @dt_control_job_create(ptr noundef @_control_import_job_run, ptr noundef @.str.180)
  store ptr %15, ptr %10, align 8, !tbaa !51
  %16 = load ptr, ptr %10, align 8, !tbaa !51
  %17 = icmp ne ptr %16, null
  br i1 %17, label %19, label %18

18:                                               ; preds = %4
  store ptr null, ptr %5, align 8
  store i32 1, ptr %11, align 4
  br label %72

19:                                               ; preds = %4
  call void @llvm.lifetime.start.p0(i64 8, ptr %12) #14
  %20 = call ptr @_control_import_alloc()
  store ptr %20, ptr %12, align 8, !tbaa !53
  %21 = load ptr, ptr %12, align 8, !tbaa !53
  %22 = icmp ne ptr %21, null
  br i1 %22, label %25, label %23

23:                                               ; preds = %19
  %24 = load ptr, ptr %10, align 8, !tbaa !51
  call void @dt_control_job_dispose(ptr noundef %24)
  store ptr null, ptr %5, align 8
  store i32 1, ptr %11, align 4
  br label %71

25:                                               ; preds = %19
  %26 = load ptr, ptr %10, align 8, !tbaa !51
  %27 = call ptr @dcgettext(ptr noundef null, ptr noundef @.str.180, i32 noundef 5) #14
  call void @dt_control_job_add_progress(ptr noundef %26, ptr noundef %27, i32 noundef 1)
  %28 = load ptr, ptr %10, align 8, !tbaa !51
  %29 = load ptr, ptr %12, align 8, !tbaa !53
  call void @dt_control_job_set_params(ptr noundef %28, ptr noundef %29, ptr noundef @_control_import_job_cleanup)
  %30 = load ptr, ptr %6, align 8, !tbaa !60
  %31 = call ptr @g_list_sort(ptr noundef %30, ptr noundef @_sort_filename)
  %32 = load ptr, ptr %12, align 8, !tbaa !53
  %33 = getelementptr inbounds nuw %struct.dt_control_image_enumerator_t, ptr %32, i32 0, i32 0
  store ptr %31, ptr %33, align 8, !tbaa !57
  call void @llvm.lifetime.start.p0(i64 8, ptr %13) #14
  %34 = load ptr, ptr %12, align 8, !tbaa !53
  %35 = getelementptr inbounds nuw %struct.dt_control_image_enumerator_t, ptr %34, i32 0, i32 2
  %36 = load ptr, ptr %35, align 8, !tbaa !59
  store ptr %36, ptr %13, align 8, !tbaa !223
  %37 = load ptr, ptr %9, align 8, !tbaa !222
  %38 = load ptr, ptr %13, align 8, !tbaa !223
  %39 = getelementptr inbounds nuw %struct.dt_control_import_t, ptr %38, i32 0, i32 1
  store ptr %37, ptr %39, align 8, !tbaa !225
  %40 = load i32, ptr %8, align 4, !tbaa !50
  %41 = icmp ne i32 %40, 0
  br i1 %41, label %42, label %45

42:                                               ; preds = %25
  %43 = load ptr, ptr %13, align 8, !tbaa !223
  %44 = getelementptr inbounds nuw %struct.dt_control_import_t, ptr %43, i32 0, i32 0
  store ptr null, ptr %44, align 8, !tbaa !228
  br label %69

45:                                               ; preds = %25
  %46 = call ptr (...) @dt_import_session_new()
  %47 = load ptr, ptr %13, align 8, !tbaa !223
  %48 = getelementptr inbounds nuw %struct.dt_control_import_t, ptr %47, i32 0, i32 0
  store ptr %46, ptr %48, align 8, !tbaa !228
  call void @llvm.lifetime.start.p0(i64 8, ptr %14) #14
  %49 = call ptr @dt_conf_get_string(ptr noundef @.str.181)
  store ptr %49, ptr %14, align 8, !tbaa !49
  %50 = load ptr, ptr %13, align 8, !tbaa !223
  %51 = getelementptr inbounds nuw %struct.dt_control_import_t, ptr %50, i32 0, i32 0
  %52 = load ptr, ptr %51, align 8, !tbaa !228
  %53 = load ptr, ptr %14, align 8, !tbaa !49
  call void @dt_import_session_set_name(ptr noundef %52, ptr noundef %53)
  %54 = load ptr, ptr %7, align 8, !tbaa !49
  %55 = icmp ne ptr %54, null
  br i1 %55, label %56, label %67

56:                                               ; preds = %45
  %57 = load ptr, ptr %7, align 8, !tbaa !49
  %58 = getelementptr inbounds i8, ptr %57, i64 0
  %59 = load i8, ptr %58, align 1, !tbaa !81
  %60 = sext i8 %59 to i32
  %61 = icmp ne i32 %60, 0
  br i1 %61, label %62, label %67

62:                                               ; preds = %56
  %63 = load ptr, ptr %13, align 8, !tbaa !223
  %64 = getelementptr inbounds nuw %struct.dt_control_import_t, ptr %63, i32 0, i32 0
  %65 = load ptr, ptr %64, align 8, !tbaa !228
  %66 = load ptr, ptr %7, align 8, !tbaa !49
  call void @dt_import_session_set_time(ptr noundef %65, ptr noundef %66)
  br label %67

67:                                               ; preds = %62, %56, %45
  %68 = load ptr, ptr %14, align 8, !tbaa !49
  call void @g_free(ptr noundef %68)
  call void @llvm.lifetime.end.p0(i64 8, ptr %14) #14
  br label %69

69:                                               ; preds = %67, %42
  %70 = load ptr, ptr %10, align 8, !tbaa !51
  store ptr %70, ptr %5, align 8
  store i32 1, ptr %11, align 4
  call void @llvm.lifetime.end.p0(i64 8, ptr %13) #14
  br label %71

71:                                               ; preds = %69, %23
  call void @llvm.lifetime.end.p0(i64 8, ptr %12) #14
  br label %72

72:                                               ; preds = %71, %18
  call void @llvm.lifetime.end.p0(i64 8, ptr %10) #14
  %73 = load ptr, ptr %5, align 8
  ret ptr %73
}

; Function Attrs: nounwind uwtable
define void @dt_control_import(ptr noundef %0, ptr noundef %1, i32 noundef %2) #0 {
  %4 = alloca ptr, align 8
  %5 = alloca ptr, align 8
  %6 = alloca i32, align 4
  %7 = alloca i32, align 4
  store ptr %0, ptr %4, align 8, !tbaa !60
  store ptr %1, ptr %5, align 8, !tbaa !49
  store i32 %2, ptr %6, align 4, !tbaa !50
  call void @llvm.lifetime.start.p0(i64 4, ptr %7) #14
  %8 = load ptr, ptr %4, align 8, !tbaa !60
  %9 = getelementptr inbounds nuw %struct._GList, ptr %8, i32 0, i32 1
  %10 = load ptr, ptr %9, align 8, !tbaa !72
  %11 = icmp ne ptr %10, null
  br i1 %11, label %15, label %12

12:                                               ; preds = %3
  %13 = load i32, ptr %6, align 4, !tbaa !50
  %14 = icmp ne i32 %13, 0
  br label %15

15:                                               ; preds = %12, %3
  %16 = phi i1 [ false, %3 ], [ %14, %12 ]
  %17 = zext i1 %16 to i32
  store i32 %17, ptr %7, align 4, !tbaa !50
  %18 = load ptr, ptr getelementptr inbounds nuw (%struct.darktable_t, ptr @darktable, i32 0, i32 12), align 8, !tbaa !10
  %19 = load ptr, ptr %4, align 8, !tbaa !60
  %20 = load ptr, ptr %5, align 8, !tbaa !49
  %21 = load i32, ptr %6, align 4, !tbaa !50
  %22 = load i32, ptr %7, align 4, !tbaa !50
  %23 = icmp ne i32 %22, 0
  br i1 %23, label %24, label %25

24:                                               ; preds = %15
  br label %26

25:                                               ; preds = %15
  br label %26

26:                                               ; preds = %25, %24
  %27 = phi ptr [ %7, %24 ], [ null, %25 ]
  %28 = call ptr @_control_import_job_create(ptr noundef %19, ptr noundef %20, i32 noundef %21, ptr noundef %27)
  %29 = call i32 @dt_control_add_job(ptr noundef %18, i32 noundef 0, ptr noundef %28)
  br label %30

30:                                               ; preds = %33, %26
  %31 = load i32, ptr %7, align 4, !tbaa !50
  %32 = icmp ne i32 %31, 0
  br i1 %32, label %33, label %34

33:                                               ; preds = %30
  call void @g_usleep(i64 noundef 100)
  br label %30

34:                                               ; preds = %30
  call void @llvm.lifetime.end.p0(i64 4, ptr %7) #14
  ret void
}