; Function Attrs: nounwind uwtable
define void @dt_control_import(ptr noundef %0, ptr noundef %1, i32 noundef %2) local_unnamed_addr #0 {
  %4 = alloca i32, align 4
  call void @llvm.lifetime.start.p0(i64 4, ptr nonnull %4) #17
  %5 = getelementptr inbounds nuw i8, ptr %0, i64 8
  %6 = load ptr, ptr %5, align 8, !tbaa !63
  %.not = icmp eq ptr %6, null
  %7 = icmp ne i32 %2, 0
  %8 = and i1 %7, %.not
  %9 = zext i1 %8 to i32
  store i32 %9, ptr %4, align 4, !tbaa !68
  %10 = load ptr, ptr getelementptr inbounds nuw (i8, ptr @darktable, i64 88), align 8, !tbaa !6
  %11 = select i1 %8, ptr %4, ptr null
  %12 = tail call ptr (ptr, ptr, ...) @dt_control_job_create(ptr noundef nonnull @_control_import_job_run, ptr noundef nonnull @.str.180) #17
  %.not.i = icmp eq ptr %12, null
  br i1 %.not.i, label %_control_import_job_create.exit, label %13

13:                                               ; preds = %3
  %14 = tail call noalias noundef dereferenceable_or_null(32) ptr @calloc(i64 noundef 1, i64 noundef 32) #18
  %.not.i.i = icmp eq ptr %14, null
  br i1 %.not.i.i, label %19, label %15

15:                                               ; preds = %13
  %16 = tail call noalias dereferenceable_or_null(16) ptr @g_malloc0(i64 noundef 16) #22
  %17 = getelementptr inbounds nuw i8, ptr %14, i64 16
  store ptr %16, ptr %17, align 8, !tbaa !52
  %.not7.i.i = icmp eq ptr %16, null
  br i1 %.not7.i.i, label %18, label %_control_import_alloc.exit.i

18:                                               ; preds = %15
  tail call void @_control_import_job_cleanup(ptr noundef nonnull %14)
  br label %19

19:                                               ; preds = %18, %13
  tail call void @dt_control_job_dispose(ptr noundef nonnull %12) #17
  br label %_control_import_job_create.exit

_control_import_alloc.exit.i:                     ; preds = %15
  %20 = tail call ptr @dcgettext(ptr noundef null, ptr noundef nonnull @.str.180, i32 noundef 5) #17
  tail call void @dt_control_job_add_progress(ptr noundef nonnull %12, ptr noundef %20, i32 noundef 1) #17
  tail call void @dt_control_job_set_params(ptr noundef nonnull %12, ptr noundef nonnull %14, ptr noundef nonnull @_control_import_job_cleanup) #17
  %21 = tail call ptr @g_list_sort(ptr noundef nonnull %0, ptr noundef nonnull @_sort_filename) #17
  store ptr %21, ptr %14, align 8, !tbaa !50
  %22 = load ptr, ptr %17, align 8, !tbaa !52
  %23 = getelementptr inbounds nuw i8, ptr %22, i64 8
  store ptr %11, ptr %23, align 8, !tbaa !202
  %.not26.i = icmp eq i32 %2, 0
  br i1 %.not26.i, label %25, label %24

24:                                               ; preds = %_control_import_alloc.exit.i
  store ptr null, ptr %22, align 8, !tbaa !205
  br label %_control_import_job_create.exit

25:                                               ; preds = %_control_import_alloc.exit.i
  %26 = call ptr (...) @dt_import_session_new() #17
  store ptr %26, ptr %22, align 8, !tbaa !205
  %27 = call ptr @dt_conf_get_string(ptr noundef nonnull @.str.181) #17
  %28 = load ptr, ptr %22, align 8, !tbaa !205
  call void @dt_import_session_set_name(ptr noundef %28, ptr noundef %27) #17
  %.not27.i = icmp eq ptr %1, null
  br i1 %.not27.i, label %33, label %29

29:                                               ; preds = %25
  %30 = load i8, ptr %1, align 1, !tbaa !72
  %.not28.i = icmp eq i8 %30, 0
  br i1 %.not28.i, label %33, label %31

31:                                               ; preds = %29
  %32 = load ptr, ptr %22, align 8, !tbaa !205
  call void @dt_import_session_set_time(ptr noundef %32, ptr noundef nonnull %1) #17
  br label %33

33:                                               ; preds = %31, %29, %25
  call void @g_free(ptr noundef %27) #17
  br label %_control_import_job_create.exit

_control_import_job_create.exit:                  ; preds = %3, %19, %24, %33
  %.0.i = phi ptr [ null, %3 ], [ null, %19 ], [ %12, %33 ], [ %12, %24 ]
  %34 = call i32 @dt_control_add_job(ptr noundef %10, i32 noundef 0, ptr noundef %.0.i) #17
  %35 = load i32, ptr %4, align 4, !tbaa !68
  %.not45 = icmp eq i32 %35, 0
  br i1 %.not45, label %._crit_edge, label %.lr.ph

.lr.ph:                                           ; preds = %_control_import_job_create.exit, %.lr.ph
  call void @g_usleep(i64 noundef 100) #17
  %36 = load i32, ptr %4, align 4, !tbaa !68
  %.not4 = icmp eq i32 %36, 0
  br i1 %.not4, label %._crit_edge, label %.lr.ph

._crit_edge:                                      ; preds = %.lr.ph, %_control_import_job_create.exit
  call void @llvm.lifetime.end.p0(i64 4, ptr nonnull %4) #17
  ret void
}